target datalayout = "e-m:e-p270:32:32-p271:32:32-p272:64:64-i64:64-i128:128-f80:128-n8:16:32:64-S128"
target triple = "x86_64-pc-linux-gnu"

@NewSizeThreadIncrease = external global i64, align 8

; Function Attrs: mustprogress nounwind uwtable
define linkonce_odr hidden noundef i64 @_Z10align_downImmTnNSt9enable_ifIXcvbsr3std11is_integralIT_EE5valueEiE4typeELi0EES1_S1_T0_(i64 noundef %0, i64 noundef %1) #1 comdat {
  %3 = alloca i64, align 8
  %4 = alloca i64, align 8
  %5 = alloca i64, align 8
  store i64 %0, ptr %3, align 8
  store i64 %1, ptr %4, align 8
  %6 = load i64, ptr %3, align 8
  %7 = load i64, ptr %4, align 8
  %8 = call noundef i64 @_ZL14alignment_maskImTnNSt9enable_ifIXcvbsr3std11is_integralIT_EE5valueEiE4typeELi0EES1_S1_(i64 noundef %7)
  %9 = xor i64 %8, -1
  %10 = and i64 %6, %9
  store i64 %10, ptr %5, align 8
  %11 = load i64, ptr %5, align 8
  ret i64 %11
}

; Function Attrs: mustprogress nounwind uwtable
define linkonce_odr hidden noundef i64 @_Z12checked_castImmET_T0_(i64 noundef %0) #1 comdat {
  %2 = alloca i64, align 8
  %3 = alloca i64, align 8
  store i64 %0, ptr %2, align 8
  %4 = load i64, ptr %2, align 8
  store i64 %4, ptr %3, align 8
  %5 = load i64, ptr %3, align 8
  ret i64 %5
}

; Function Attrs: mustprogress nounwind uwtable
define internal noundef i64 @_ZL14alignment_maskImTnNSt9enable_ifIXcvbsr3std11is_integralIT_EE5valueEiE4typeELi0EES1_S1_(i64 noundef %0) #1 {
  %2 = alloca i64, align 8
  store i64 %0, ptr %2, align 8
  %3 = load i64, ptr %2, align 8
  %4 = sub i64 %3, 1
  ret i64 %4
}

; Function Attrs: mustprogress nounwind uwtable
define linkonce_odr hidden noundef i64 @_Z8align_upImmTnNSt9enable_ifIXcvbsr3std11is_integralIT_EE5valueEiE4typeELi0EES1_S1_T0_(i64 noundef %0, i64 noundef %1) #1 comdat {
  %3 = alloca i64, align 8
  %4 = alloca i64, align 8
  %5 = alloca i64, align 8
  store i64 %0, ptr %3, align 8
  store i64 %1, ptr %4, align 8
  %6 = load i64, ptr %3, align 8
  %7 = load i64, ptr %4, align 8
  %8 = call noundef i64 @_ZL14alignment_maskImTnNSt9enable_ifIXcvbsr3std11is_integralIT_EE5valueEiE4typeELi0EES1_S1_(i64 noundef %7)
  %9 = add i64 %6, %8
  %10 = call noundef i64 @_Z12checked_castImmET_T0_(i64 noundef %9)
  store i64 %10, ptr %5, align 8
  %11 = load i64, ptr %5, align 8
  %12 = load i64, ptr %4, align 8
  %13 = call noundef i64 @_Z10align_downImmTnNSt9enable_ifIXcvbsr3std11is_integralIT_EE5valueEiE4typeELi0EES1_S1_T0_(i64 noundef %11, i64 noundef %12)
  ret i64 %13
}

; Function Attrs: mustprogress nounwind uwtable
define hidden noundef i64 @_ZNK16DefNewGeneration26adjust_for_thread_increaseEmmmm(ptr noundef nonnull align 8 dereferenceable(744) %0, i64 noundef %1, i64 noundef %2, i64 noundef %3, i64 noundef %4) #1 align 2 {
  %6 = alloca ptr, align 8
  %7 = alloca i64, align 8
  %8 = alloca i64, align 8
  %9 = alloca i64, align 8
  %10 = alloca i64, align 8
  %11 = alloca i64, align 8
  %12 = alloca i64, align 8
  store ptr %0, ptr %6, align 8
  store i64 %1, ptr %7, align 8
  store i64 %2, ptr %8, align 8
  store i64 %3, ptr %9, align 8
  store i64 %4, ptr %10, align 8
  %13 = load i64, ptr %8, align 8
  store i64 %13, ptr %11, align 8
  %14 = load i64, ptr @NewSizeThreadIncrease, align 8
  %15 = icmp ugt i64 %14, 0
  br i1 %15, label %16, label %43

16:                                               ; preds = %5
  %17 = load i64, ptr %10, align 8
  %18 = icmp ugt i64 %17, 0
  br i1 %18, label %19, label %43

19:                                               ; preds = %16
  %20 = load i64, ptr %7, align 8
  %21 = load i64, ptr %10, align 8
  %22 = sub i64 -1, %21
  %23 = icmp ule i64 %20, %22
  br i1 %23, label %24, label %42

24:                                               ; preds = %19
  %25 = load i64, ptr %10, align 8
  %26 = load i64, ptr %7, align 8
  %27 = add i64 %26, %25
  store i64 %27, ptr %7, align 8
  %28 = load i64, ptr %9, align 8
  %29 = sub i64 -1, %28
  %30 = load i64, ptr %9, align 8
  %31 = sub i64 %30, 1
  %32 = xor i64 %31, -1
  %33 = and i64 %29, %32
  store i64 %33, ptr %12, align 8
  %34 = load i64, ptr %7, align 8
  %35 = load i64, ptr %12, align 8
  %36 = icmp ule i64 %34, %35
  br i1 %36, label %37, label %41

37:                                               ; preds = %24
  %38 = load i64, ptr %7, align 8
  %39 = load i64, ptr %9, align 8
  %40 = call noundef i64 @_Z8align_upImmTnNSt9enable_ifIXcvbsr3std11is_integralIT_EE5valueEiE4typeELi0EES1_S1_T0_(i64 noundef %38, i64 noundef %39)
  store i64 %40, ptr %11, align 8
  br label %41

41:                                               ; preds = %37, %24
  br label %42

42:                                               ; preds = %41, %19
  br label %43

43:                                               ; preds = %42, %16, %5
  %44 = load i64, ptr %11, align 8
  ret i64 %44
}