; Function Attrs: mustprogress nofree norecurse nosync nounwind willreturn memory(read, argmem: none, inaccessiblemem: none) uwtable
define hidden noundef i64 @_ZNK16DefNewGeneration26adjust_for_thread_increaseEmmmm(ptr nocapture noundef nonnull readnone align 8 dereferenceable(744) %0, i64 noundef %1, i64 noundef %2, i64 noundef %3, i64 noundef %4) local_unnamed_addr #5 align 2 {
  %6 = load i64, ptr @NewSizeThreadIncrease, align 8
  %7 = icmp eq i64 %6, 0
  %8 = icmp eq i64 %4, 0
  %or.cond.not21 = or i1 %8, %7
  %9 = xor i64 %4, -1
  %.not = icmp ult i64 %9, %1
  %or.cond18 = or i1 %.not, %or.cond.not21
  br i1 %or.cond18, label %19, label %10

10:                                               ; preds = %5
  %11 = add i64 %4, %1
  %12 = xor i64 %3, -1
  %13 = sub i64 0, %3
  %14 = and i64 %12, %13
  %.not17 = icmp ugt i64 %11, %14
  br i1 %.not17, label %19, label %15

15:                                               ; preds = %10
  %16 = add i64 %3, -1
  %17 = add i64 %16, %11
  %18 = and i64 %17, %13
  br label %19

19:                                               ; preds = %15, %10, %5
  %.0 = phi i64 [ %18, %15 ], [ %2, %10 ], [ %2, %5 ]
  ret i64 %.0
}